; Function Attrs: mustprogress nounwind uwtable
define dso_local void @_ZN5clang14JSONNodeDumper23VisitCXXDefaultInitExprEPKNS_18CXXDefaultInitExprE(ptr noundef nonnull align 8 dereferenceable(1312) %0, ptr nocapture noundef readonly %1) local_unnamed_addr #0 align 2 {
  %3 = alloca %"class.llvm::json::Value", align 8
  %4 = load i32, ptr %1, align 8
  %5 = and i32 %4, 262144
  %.not = icmp eq i32 %5, 0
  call void @llvm.lifetime.start.p0(i64 40, ptr nonnull %3)
  br i1 %.not, label %_ZN5clang14JSONNodeDumper19attributeOnlyIfTrueEN4llvm9StringRefEb.exit, label %6

6:                                                ; preds = %2
  %7 = getelementptr inbounds nuw i8, ptr %0, i64 1048
  store i16 1, ptr %3, align 8
  %8 = getelementptr inbounds nuw i8, ptr %3, i64 8
  store i8 1, ptr %8, align 8
  tail call void @_ZN4llvm4json7OStream14attributeBeginENS_9StringRefE(ptr noundef nonnull align 8 dereferenceable(176) %7, ptr nonnull @.str.756, i64 16) #20
  call void @_ZN4llvm4json7OStream5valueERKNS0_5ValueE(ptr noundef nonnull align 8 dereferenceable(176) %7, ptr noundef nonnull align 8 dereferenceable(40) %3) #20
  call void @_ZN4llvm4json7OStream12attributeEndEv(ptr noundef nonnull align 8 dereferenceable(176) %7) #20
  call void @_ZN4llvm4json5Value7destroyEv(ptr noundef nonnull align 8 dereferenceable(40) %3) #20
  br label %_ZN5clang14JSONNodeDumper19attributeOnlyIfTrueEN4llvm9StringRefEb.exit

_ZN5clang14JSONNodeDumper19attributeOnlyIfTrueEN4llvm9StringRefEb.exit: ; preds = %2, %6
  call void @llvm.lifetime.end.p0(i64 40, ptr nonnull %3)
  ret void
}